target datalayout = "e-m:e-p270:32:32-p271:32:32-p272:64:64-i64:64-i128:128-f80:128-n8:16:32:64-S128"
target triple = "x86_64-pc-linux-gnu"

%struct.AVFilterContext = type { ptr, ptr, ptr, ptr, ptr, i32, ptr, ptr, i32, ptr, ptr, i32, i32, ptr, ptr, ptr, ptr, i32, ptr, i32, i32 }
%struct.ELBGFilterContext = type { ptr, ptr, %struct.AVLFG, i64, i32, ptr, i32, ptr, ptr, i32, ptr, [4 x i8], i32, i32 }
%struct.AVLFG = type { [64 x i32], i32 }
%struct.AVFilterFormatsConfig = type { ptr, ptr, ptr, ptr, ptr }
%struct.AVFilterLink = type { ptr, ptr, ptr, ptr, i32, i32, i32, i32, %struct.AVRational, i32, i32, i32, %struct.AVChannelLayout, %struct.AVRational, ptr, i32, %struct.AVFilterFormatsConfig, %struct.AVFilterFormatsConfig }
%struct.AVChannelLayout = type { i32, i32, %union.anon.1, ptr }
%union.anon.1 = type { i64 }
%struct.AVRational = type { i32, i32 }

; Function Attrs: nounwind uwtable
define internal i32 @config_input(ptr noundef %0) #1 {
  %2 = alloca i32, align 4
  %3 = alloca ptr, align 8
  %4 = alloca ptr, align 8
  %5 = alloca ptr, align 8
  %6 = alloca i32, align 4
  store ptr %0, ptr %3, align 8, !tbaa !38
  call void @llvm.lifetime.start.p0(i64 8, ptr %4) #4
  %7 = load ptr, ptr %3, align 8, !tbaa !38
  %8 = getelementptr inbounds nuw %struct.AVFilterLink, ptr %7, i32 0, i32 2
  %9 = load ptr, ptr %8, align 8, !tbaa !42
  store ptr %9, ptr %4, align 8, !tbaa !4
  call void @llvm.lifetime.start.p0(i64 8, ptr %5) #4
  %10 = load ptr, ptr %4, align 8, !tbaa !4
  %11 = getelementptr inbounds nuw %struct.AVFilterContext, ptr %10, i32 0, i32 9
  %12 = load ptr, ptr %11, align 8, !tbaa !9
  store ptr %12, ptr %5, align 8, !tbaa !22
  %13 = load ptr, ptr %3, align 8, !tbaa !38
  %14 = getelementptr inbounds nuw %struct.AVFilterLink, ptr %13, i32 0, i32 5
  %15 = load i32, ptr %14, align 4, !tbaa !73
  %16 = call ptr @av_pix_fmt_desc_get(i32 noundef %15)
  %17 = load ptr, ptr %5, align 8, !tbaa !22
  %18 = getelementptr inbounds nuw %struct.ELBGFilterContext, ptr %17, i32 0, i32 10
  store ptr %16, ptr %18, align 8, !tbaa !56
  %19 = load ptr, ptr %3, align 8, !tbaa !38
  %20 = getelementptr inbounds nuw %struct.AVFilterLink, ptr %19, i32 0, i32 6
  %21 = load i32, ptr %20, align 8, !tbaa !53
  %22 = load ptr, ptr %3, align 8, !tbaa !38
  %23 = getelementptr inbounds nuw %struct.AVFilterLink, ptr %22, i32 0, i32 7
  %24 = load i32, ptr %23, align 4, !tbaa !52
  %25 = mul nsw i32 %21, %24
  %26 = load ptr, ptr %5, align 8, !tbaa !22
  %27 = getelementptr inbounds nuw %struct.ELBGFilterContext, ptr %26, i32 0, i32 6
  store i32 %25, ptr %27, align 8, !tbaa !62
  %28 = load ptr, ptr %5, align 8, !tbaa !22
  %29 = getelementptr inbounds nuw %struct.ELBGFilterContext, ptr %28, i32 0, i32 5
  %30 = load ptr, ptr %29, align 8, !tbaa !54
  %31 = load ptr, ptr %5, align 8, !tbaa !22
  %32 = getelementptr inbounds nuw %struct.ELBGFilterContext, ptr %31, i32 0, i32 6
  %33 = load i32, ptr %32, align 8, !tbaa !62
  %34 = sext i32 %33 to i64
  %35 = call ptr @av_realloc_f(ptr noundef %30, i64 noundef %34, i64 noundef 16)
  %36 = load ptr, ptr %5, align 8, !tbaa !22
  %37 = getelementptr inbounds nuw %struct.ELBGFilterContext, ptr %36, i32 0, i32 5
  store ptr %35, ptr %37, align 8, !tbaa !54
  %38 = load ptr, ptr %5, align 8, !tbaa !22
  %39 = getelementptr inbounds nuw %struct.ELBGFilterContext, ptr %38, i32 0, i32 5
  %40 = load ptr, ptr %39, align 8, !tbaa !54
  %41 = icmp ne ptr %40, null
  br i1 %41, label %43, label %42

42:                                               ; preds = %1
  store i32 -12, ptr %2, align 4
  store i32 1, ptr %6, align 4
  br label %83

43:                                               ; preds = %1
  %44 = load ptr, ptr %5, align 8, !tbaa !22
  %45 = getelementptr inbounds nuw %struct.ELBGFilterContext, ptr %44, i32 0, i32 7
  %46 = load ptr, ptr %45, align 8, !tbaa !65
  %47 = load ptr, ptr %5, align 8, !tbaa !22
  %48 = getelementptr inbounds nuw %struct.ELBGFilterContext, ptr %47, i32 0, i32 6
  %49 = load i32, ptr %48, align 8, !tbaa !62
  %50 = sext i32 %49 to i64
  %51 = call ptr @av_realloc_f(ptr noundef %46, i64 noundef %50, i64 noundef 4)
  %52 = load ptr, ptr %5, align 8, !tbaa !22
  %53 = getelementptr inbounds nuw %struct.ELBGFilterContext, ptr %52, i32 0, i32 7
  store ptr %51, ptr %53, align 8, !tbaa !65
  %54 = load ptr, ptr %5, align 8, !tbaa !22
  %55 = getelementptr inbounds nuw %struct.ELBGFilterContext, ptr %54, i32 0, i32 7
  %56 = load ptr, ptr %55, align 8, !tbaa !65
  %57 = icmp ne ptr %56, null
  br i1 %57, label %59, label %58

58:                                               ; preds = %43
  store i32 -12, ptr %2, align 4
  store i32 1, ptr %6, align 4
  br label %83

59:                                               ; preds = %43
  %60 = load ptr, ptr %5, align 8, !tbaa !22
  %61 = getelementptr inbounds nuw %struct.ELBGFilterContext, ptr %60, i32 0, i32 8
  %62 = load ptr, ptr %61, align 8, !tbaa !63
  %63 = load ptr, ptr %5, align 8, !tbaa !22
  %64 = getelementptr inbounds nuw %struct.ELBGFilterContext, ptr %63, i32 0, i32 9
  %65 = load i32, ptr %64, align 8, !tbaa !31
  %66 = sext i32 %65 to i64
  %67 = call ptr @av_realloc_f(ptr noundef %62, i64 noundef %66, i64 noundef 16)
  %68 = load ptr, ptr %5, align 8, !tbaa !22
  %69 = getelementptr inbounds nuw %struct.ELBGFilterContext, ptr %68, i32 0, i32 8
  store ptr %67, ptr %69, align 8, !tbaa !63
  %70 = load ptr, ptr %5, align 8, !tbaa !22
  %71 = getelementptr inbounds nuw %struct.ELBGFilterContext, ptr %70, i32 0, i32 8
  %72 = load ptr, ptr %71, align 8, !tbaa !63
  %73 = icmp ne ptr %72, null
  br i1 %73, label %75, label %74

74:                                               ; preds = %59
  store i32 -12, ptr %2, align 4
  store i32 1, ptr %6, align 4
  br label %83

75:                                               ; preds = %59
  %76 = load ptr, ptr %5, align 8, !tbaa !22
  %77 = getelementptr inbounds nuw %struct.ELBGFilterContext, ptr %76, i32 0, i32 11
  %78 = getelementptr inbounds [4 x i8], ptr %77, i64 0, i64 0
  %79 = load ptr, ptr %3, align 8, !tbaa !38
  %80 = getelementptr inbounds nuw %struct.AVFilterLink, ptr %79, i32 0, i32 5
  %81 = load i32, ptr %80, align 4, !tbaa !73
  %82 = call i32 @ff_fill_rgba_map(ptr noundef %78, i32 noundef %81)
  store i32 0, ptr %2, align 4
  store i32 1, ptr %6, align 4
  br label %83

83:                                               ; preds = %75, %74, %58, %42
  call void @llvm.lifetime.end.p0(i64 8, ptr %5) #4
  call void @llvm.lifetime.end.p0(i64 8, ptr %4) #4
  %84 = load i32, ptr %2, align 4
  ret i32 %84
}