; Function Attrs: nounwind uwtable
define internal range(i32 -12, 1) i32 @config_input(ptr noundef readonly captures(none) %0) #1 {
  %2 = getelementptr inbounds nuw i8, ptr %0, i64 16
  %3 = load ptr, ptr %2, align 8, !tbaa !33
  %4 = getelementptr inbounds nuw i8, ptr %3, i64 72
  %5 = load ptr, ptr %4, align 8, !tbaa !4
  %6 = getelementptr inbounds nuw i8, ptr %0, i64 36
  %7 = load i32, ptr %6, align 4, !tbaa !68
  %8 = tail call ptr @av_pix_fmt_desc_get(i32 noundef %7) #4
  %9 = getelementptr inbounds nuw i8, ptr %5, i64 336
  store ptr %8, ptr %9, align 8, !tbaa !47
  %10 = getelementptr inbounds nuw i8, ptr %0, i64 40
  %11 = load i32, ptr %10, align 8, !tbaa !44
  %12 = getelementptr inbounds nuw i8, ptr %0, i64 44
  %13 = load i32, ptr %12, align 4, !tbaa !43
  %14 = mul nsw i32 %13, %11
  %15 = getelementptr inbounds nuw i8, ptr %5, i64 304
  store i32 %14, ptr %15, align 8, !tbaa !56
  %16 = getelementptr inbounds nuw i8, ptr %5, i64 296
  %17 = load ptr, ptr %16, align 8, !tbaa !46
  %18 = sext i32 %14 to i64
  %19 = tail call ptr @av_realloc_f(ptr noundef %17, i64 noundef %18, i64 noundef 16) #4
  store ptr %19, ptr %16, align 8, !tbaa !46
  %.not = icmp eq ptr %19, null
  br i1 %.not, label %37, label %20

20:                                               ; preds = %1
  %21 = getelementptr inbounds nuw i8, ptr %5, i64 312
  %22 = load ptr, ptr %21, align 8, !tbaa !59
  %23 = load i32, ptr %15, align 8, !tbaa !56
  %24 = sext i32 %23 to i64
  %25 = tail call ptr @av_realloc_f(ptr noundef %22, i64 noundef %24, i64 noundef 4) #4
  store ptr %25, ptr %21, align 8, !tbaa !59
  %.not21 = icmp eq ptr %25, null
  br i1 %.not21, label %37, label %26

26:                                               ; preds = %20
  %27 = getelementptr inbounds nuw i8, ptr %5, i64 320
  %28 = load ptr, ptr %27, align 8, !tbaa !57
  %29 = getelementptr inbounds nuw i8, ptr %5, i64 328
  %30 = load i32, ptr %29, align 8, !tbaa !27
  %31 = sext i32 %30 to i64
  %32 = tail call ptr @av_realloc_f(ptr noundef %28, i64 noundef %31, i64 noundef 16) #4
  store ptr %32, ptr %27, align 8, !tbaa !57
  %.not22 = icmp eq ptr %32, null
  br i1 %.not22, label %37, label %33

33:                                               ; preds = %26
  %34 = getelementptr inbounds nuw i8, ptr %5, i64 344
  %35 = load i32, ptr %6, align 4, !tbaa !68
  %36 = tail call i32 @ff_fill_rgba_map(ptr noundef nonnull %34, i32 noundef %35) #4
  br label %37

37:                                               ; preds = %26, %20, %1, %33
  %.0 = phi i32 [ 0, %33 ], [ -12, %1 ], [ -12, %20 ], [ -12, %26 ]
  ret i32 %.0
}